; Function Attrs: nounwind uwtable
define hidden void @recff_ffi_errno(ptr noundef %0, ptr noundef readnone captures(none) %1) local_unnamed_addr #0 {
  %3 = getelementptr inbounds nuw i8, ptr %0, i64 160
  %4 = load ptr, ptr %3, align 8, !tbaa !4
  %5 = load i32, ptr %4, align 4, !tbaa !27
  %.not = icmp eq i32 %5, 0
  br i1 %.not, label %7, label %6

6:                                                ; preds = %2
  tail call void @lj_trace_err(ptr noundef nonnull %0, i32 noundef 23) #7
  unreachable

7:                                                ; preds = %2
  %8 = tail call i32 (ptr, i32, ...) @lj_ir_call(ptr noundef nonnull %0, i32 noundef 106) #8
  %9 = load ptr, ptr %3, align 8, !tbaa !4
  store i32 %8, ptr %9, align 4, !tbaa !27
  ret void
}